(dp1
S'failed'
p2
(lp3
S'4'
aS'5'
aS'7'
asS'source_names'
p4
(lp5
S'.'
asS'ids'
p6
(dp7
I1
(S'/home/isaac/.qgis2/python/plugins/MakeOSMRoutableNetwork/test/test_init.py'
S'MakeOSMRoutableNetwork.test.test_init'
S'TestInit.test_read_init'
tp8
sI2
(S'/home/isaac/.qgis2/python/plugins/MakeOSMRoutableNetwork/test/test_make_osm_routable_network_dialog.py'
S'MakeOSMRoutableNetwork.test.test_make_osm_routable_network_dialog'
p9
S'MakeOSMRoutableNetworkDialogTest.test_dialog_cancel'
tp10
sI3
(S'/home/isaac/.qgis2/python/plugins/MakeOSMRoutableNetwork/test/test_make_osm_routable_network_dialog.py'
g9
S'MakeOSMRoutableNetworkDialogTest.test_dialog_ok'
tp11
sI4
(S'/home/isaac/.qgis2/python/plugins/MakeOSMRoutableNetwork/test/test_qgis_environment.py'
S'MakeOSMRoutableNetwork.test.test_qgis_environment'
p12
S'QGISTest.test_projection'
tp13
sI5
(S'/home/isaac/.qgis2/python/plugins/MakeOSMRoutableNetwork/test/test_qgis_environment.py'
g12
S'QGISTest.test_qgis_environment'
tp14
sI6
(S'/home/isaac/.qgis2/python/plugins/MakeOSMRoutableNetwork/test/test_resources.py'
S'MakeOSMRoutableNetwork.test.test_resources'
S'MakeOSMRoutableNetworkDialogTest.test_icon_png'
tp15
sI7
(S'/home/isaac/.qgis2/python/plugins/MakeOSMRoutableNetwork/test/test_translations.py'
S'MakeOSMRoutableNetwork.test.test_translations'
S'SafeTranslationsTest.test_qgis_translations'
tp16
ss.